target datalayout = "e-m:e-p270:32:32-p271:32:32-p272:64:64-i64:64-i128:128-f80:128-n8:16:32:64-S128"
target triple = "x86_64-unknown-linux-gnu"

%class.b2Island = type { ptr, ptr, ptr, ptr, ptr, ptr, ptr, i32, i32, i32, i32, i32, i32 }
%struct.b2Vec2 = type { float, float }
%struct.b2ContactImpulse = type { [2 x float], [2 x float], i32 }
%struct.b2ContactVelocityConstraint = type { [2 x %struct.b2VelocityConstraintPoint], %struct.b2Vec2, %struct.b2Mat22, %struct.b2Mat22, i32, i32, float, float, float, float, float, float, float, float, i32, i32 }
%struct.b2VelocityConstraintPoint = type { %struct.b2Vec2, %struct.b2Vec2, float, float, float, float, float }
%struct.b2Mat22 = type { %struct.b2Vec2, %struct.b2Vec2 }

; Function Attrs: mustprogress uwtable
define hidden void @_ZN8b2Island6ReportEPK27b2ContactVelocityConstraint(ptr noundef nonnull align 8 dereferenceable(80) %this, ptr noundef %constraints) #0 align 2 {
entry:
  %this.addr = alloca ptr, align 8
  %constraints.addr = alloca ptr, align 8
  %i = alloca i32, align 4
  %c = alloca ptr, align 8
  %vc = alloca ptr, align 8
  %impulse = alloca %struct.b2ContactImpulse, align 4
  %j = alloca i32, align 4
  store ptr %this, ptr %this.addr, align 8
  store ptr %constraints, ptr %constraints.addr, align 8
  %this1 = load ptr, ptr %this.addr, align 8
  %m_listener = getelementptr inbounds %class.b2Island, ptr %this1, i32 0, i32 1
  %0 = load ptr, ptr %m_listener, align 8
  %cmp = icmp eq ptr %0, null
  br i1 %cmp, label %if.then, label %if.end

if.then:                                          ; preds = %entry
  br label %for.end19

if.end:                                           ; preds = %entry
  store i32 0, ptr %i, align 4
  br label %for.cond

for.cond:                                         ; preds = %for.inc17, %if.end
  %1 = load i32, ptr %i, align 4
  %m_contactCount = getelementptr inbounds %class.b2Island, ptr %this1, i32 0, i32 9
  %2 = load i32, ptr %m_contactCount, align 8
  %cmp2 = icmp slt i32 %1, %2
  br i1 %cmp2, label %for.body, label %for.end19

for.body:                                         ; preds = %for.cond
  %m_contacts = getelementptr inbounds %class.b2Island, ptr %this1, i32 0, i32 3
  %3 = load ptr, ptr %m_contacts, align 8
  %4 = load i32, ptr %i, align 4
  %idxprom = sext i32 %4 to i64
  %arrayidx = getelementptr inbounds ptr, ptr %3, i64 %idxprom
  %5 = load ptr, ptr %arrayidx, align 8
  store ptr %5, ptr %c, align 8
  %6 = load ptr, ptr %constraints.addr, align 8
  %7 = load i32, ptr %i, align 4
  %idx.ext = sext i32 %7 to i64
  %add.ptr = getelementptr inbounds %struct.b2ContactVelocityConstraint, ptr %6, i64 %idx.ext
  store ptr %add.ptr, ptr %vc, align 8
  %8 = load ptr, ptr %vc, align 8
  %pointCount = getelementptr inbounds %struct.b2ContactVelocityConstraint, ptr %8, i32 0, i32 14
  %9 = load i32, ptr %pointCount, align 4
  %count = getelementptr inbounds %struct.b2ContactImpulse, ptr %impulse, i32 0, i32 2
  store i32 %9, ptr %count, align 4
  store i32 0, ptr %j, align 4
  br label %for.cond3

for.cond3:                                        ; preds = %for.inc, %for.body
  %10 = load i32, ptr %j, align 4
  %11 = load ptr, ptr %vc, align 8
  %pointCount4 = getelementptr inbounds %struct.b2ContactVelocityConstraint, ptr %11, i32 0, i32 14
  %12 = load i32, ptr %pointCount4, align 4
  %cmp5 = icmp slt i32 %10, %12
  br i1 %cmp5, label %for.body6, label %for.end

for.body6:                                        ; preds = %for.cond3
  %13 = load ptr, ptr %vc, align 8
  %points = getelementptr inbounds %struct.b2ContactVelocityConstraint, ptr %13, i32 0, i32 0
  %14 = load i32, ptr %j, align 4
  %idxprom7 = sext i32 %14 to i64
  %arrayidx8 = getelementptr inbounds [2 x %struct.b2VelocityConstraintPoint], ptr %points, i64 0, i64 %idxprom7
  %normalImpulse = getelementptr inbounds %struct.b2VelocityConstraintPoint, ptr %arrayidx8, i32 0, i32 2
  %15 = load float, ptr %normalImpulse, align 4
  %normalImpulses = getelementptr inbounds %struct.b2ContactImpulse, ptr %impulse, i32 0, i32 0
  %16 = load i32, ptr %j, align 4
  %idxprom9 = sext i32 %16 to i64
  %arrayidx10 = getelementptr inbounds [2 x float], ptr %normalImpulses, i64 0, i64 %idxprom9
  store float %15, ptr %arrayidx10, align 4
  %17 = load ptr, ptr %vc, align 8
  %points11 = getelementptr inbounds %struct.b2ContactVelocityConstraint, ptr %17, i32 0, i32 0
  %18 = load i32, ptr %j, align 4
  %idxprom12 = sext i32 %18 to i64
  %arrayidx13 = getelementptr inbounds [2 x %struct.b2VelocityConstraintPoint], ptr %points11, i64 0, i64 %idxprom12
  %tangentImpulse = getelementptr inbounds %struct.b2VelocityConstraintPoint, ptr %arrayidx13, i32 0, i32 3
  %19 = load float, ptr %tangentImpulse, align 4
  %tangentImpulses = getelementptr inbounds %struct.b2ContactImpulse, ptr %impulse, i32 0, i32 1
  %20 = load i32, ptr %j, align 4
  %idxprom14 = sext i32 %20 to i64
  %arrayidx15 = getelementptr inbounds [2 x float], ptr %tangentImpulses, i64 0, i64 %idxprom14
  store float %19, ptr %arrayidx15, align 4
  br label %for.inc

for.inc:                                          ; preds = %for.body6
  %21 = load i32, ptr %j, align 4
  %inc = add nsw i32 %21, 1
  store i32 %inc, ptr %j, align 4
  br label %for.cond3, !llvm.loop !15

for.end:                                          ; preds = %for.cond3
  %m_listener16 = getelementptr inbounds %class.b2Island, ptr %this1, i32 0, i32 1
  %22 = load ptr, ptr %m_listener16, align 8
  %23 = load ptr, ptr %c, align 8
  %vtable = load ptr, ptr %22, align 8
  %vfn = getelementptr inbounds ptr, ptr %vtable, i64 5
  %24 = load ptr, ptr %vfn, align 8
  call void %24(ptr noundef nonnull align 8 dereferenceable(8) %22, ptr noundef %23, ptr noundef %impulse)
  br label %for.inc17

for.inc17:                                        ; preds = %for.end
  %25 = load i32, ptr %i, align 4
  %inc18 = add nsw i32 %25, 1
  store i32 %inc18, ptr %i, align 4
  br label %for.cond, !llvm.loop !16

for.end19:                                        ; preds = %for.cond, %if.then
  ret void
}