; Function Attrs: mustprogress uwtable
define hidden void @_ZN8b2Island6ReportEPK27b2ContactVelocityConstraint(ptr noundef nonnull readonly align 8 captures(none) dereferenceable(80) %this, ptr noundef readonly captures(none) %constraints) local_unnamed_addr #0 align 2 {
entry:
  %impulse = alloca %struct.b2ContactImpulse, align 4
  %m_listener = getelementptr inbounds nuw i8, ptr %this, i64 8
  %0 = load ptr, ptr %m_listener, align 8
  %cmp = icmp eq ptr %0, null
  br i1 %cmp, label %for.end19, label %for.cond.preheader

for.cond.preheader:                               ; preds = %entry
  %m_contactCount = getelementptr inbounds nuw i8, ptr %this, i64 64
  %1 = load i32, ptr %m_contactCount, align 8
  %cmp214 = icmp sgt i32 %1, 0
  br i1 %cmp214, label %for.body.lr.ph, label %for.end19

for.body.lr.ph:                                   ; preds = %for.cond.preheader
  %m_contacts = getelementptr inbounds nuw i8, ptr %this, i64 24
  %count = getelementptr inbounds nuw i8, ptr %impulse, i64 16
  %tangentImpulses = getelementptr inbounds nuw i8, ptr %impulse, i64 8
  br label %for.body

for.body:                                         ; preds = %for.body.lr.ph, %for.end
  %indvars.iv17 = phi i64 [ 0, %for.body.lr.ph ], [ %indvars.iv.next18, %for.end ]
  %2 = load ptr, ptr %m_contacts, align 8
  %arrayidx = getelementptr inbounds nuw ptr, ptr %2, i64 %indvars.iv17
  %3 = load ptr, ptr %arrayidx, align 8
  %add.ptr = getelementptr inbounds nuw %struct.b2ContactVelocityConstraint, ptr %constraints, i64 %indvars.iv17
  %pointCount = getelementptr inbounds nuw i8, ptr %add.ptr, i64 152
  %4 = load i32, ptr %pointCount, align 4
  store i32 %4, ptr %count, align 4
  %cmp512 = icmp sgt i32 %4, 0
  br i1 %cmp512, label %for.body6.preheader, label %for.end

for.body6.preheader:                              ; preds = %for.body
  %wide.trip.count = zext nneg i32 %4 to i64
  br label %for.body6

for.body6:                                        ; preds = %for.body6.preheader, %for.body6
  %indvars.iv = phi i64 [ 0, %for.body6.preheader ], [ %indvars.iv.next, %for.body6 ]
  %arrayidx8 = getelementptr inbounds nuw [2 x %struct.b2VelocityConstraintPoint], ptr %add.ptr, i64 0, i64 %indvars.iv
  %normalImpulse = getelementptr inbounds nuw i8, ptr %arrayidx8, i64 16
  %5 = load float, ptr %normalImpulse, align 4
  %arrayidx10 = getelementptr inbounds nuw [2 x float], ptr %impulse, i64 0, i64 %indvars.iv
  store float %5, ptr %arrayidx10, align 4
  %tangentImpulse = getelementptr inbounds nuw i8, ptr %arrayidx8, i64 20
  %6 = load float, ptr %tangentImpulse, align 4
  %arrayidx15 = getelementptr inbounds nuw [2 x float], ptr %tangentImpulses, i64 0, i64 %indvars.iv
  store float %6, ptr %arrayidx15, align 4
  %indvars.iv.next = add nuw nsw i64 %indvars.iv, 1
  %exitcond.not = icmp eq i64 %indvars.iv.next, %wide.trip.count
  br i1 %exitcond.not, label %for.end, label %for.body6, !llvm.loop !13

for.end:                                          ; preds = %for.body6, %for.body
  %7 = load ptr, ptr %m_listener, align 8
  %vtable = load ptr, ptr %7, align 8
  %vfn = getelementptr inbounds nuw i8, ptr %vtable, i64 40
  %8 = load ptr, ptr %vfn, align 8
  call void %8(ptr noundef nonnull align 8 dereferenceable(8) %7, ptr noundef %3, ptr noundef nonnull %impulse)
  %indvars.iv.next18 = add nuw nsw i64 %indvars.iv17, 1
  %9 = load i32, ptr %m_contactCount, align 8
  %10 = sext i32 %9 to i64
  %cmp2 = icmp slt i64 %indvars.iv.next18, %10
  br i1 %cmp2, label %for.body, label %for.end19, !llvm.loop !14

for.end19:                                        ; preds = %for.end, %for.cond.preheader, %entry
  ret void
}